ccollections
defaultdict
p0
(c__builtin__
list
p1
tp2
Rp3
I0
(lp4
I0
aI1
aI2
aI9
aI10
aI11
aI18
aI19
aI20
aI27
aI28
aI29
aI36
aI37
aI38
aI45
aI46
aI47
aI54
aI55
aI56
aI63
aI64
aI65
asI1
(lp5
I3
aI4
aI5
aI12
aI13
aI14
aI21
aI22
aI23
aI30
aI31
aI32
aI39
aI40
aI41
aI48
aI49
aI50
aI57
aI58
aI59
aI66
aI67
aI68
asI2
(lp6
I6
aI7
aI8
aI15
aI16
aI17
aI24
aI25
aI26
aI33
aI34
aI35
aI42
aI43
aI44
aI51
aI52
aI53
aI60
aI61
aI62
aI69
aI70
aI71
as.