ccollections
defaultdict
p0
(c__builtin__
list
p1
tp2
Rp3
I0
(lp4
I0
aI1
aI2
aI9
aI10
aI11
aI18
aI19
aI20
aI27
aI28
aI29
asI1
(lp5
I3
aI4
aI5
aI12
aI13
aI14
aI21
aI22
aI23
aI30
aI31
aI32
asI2
(lp6
I6
aI7
aI8
aI15
aI16
aI17
aI24
aI25
aI26
aI33
aI34
aI35
as.