ccollections
OrderedDict
p0
((lp1
(lp2
S'y'
p3
ag0
((lp4
(lp5
S'move_p'
p6
ag0
((lp7
(lp8
S'Hard Puff'
p9
acnumpy.core.multiarray
scalar
p10
(cnumpy
dtype
p11
(S'f8'
p12
I0
I1
tp13
Rp14
(I3
S'<'
p15
NNNI-1
I-1
I0
tp16
bS'\xd2nR\xf7\xf8N\xd2?'
p17
tp18
Rp19
aa(lp20
S'Hard Sip'
p21
ag10
(g14
S'\xf1\xb7\x0fW\x12C\xca?'
p22
tp23
Rp24
aa(lp25
S'Soft Puff'
p26
ag10
(g14
S'8~\x8f\x9f\xdc\xd9\xca?'
p27
tp28
Rp29
aa(lp30
S'Soft Sip'
p31
ag10
(g14
S'\x16\xf6]\x8d\x8f"\xd3?'
p32
tp33
Rp34
aatp35
Rp36
aa(lp37
S'mode_r'
p38
ag0
((lp39
(lp40
g9
ag10
(g14
S'x\xf9\\@s\x06\xce?'
p41
tp42
Rp43
aa(lp44
g21
ag10
(g14
S'\xd4ZVo2\xec\xd4?'
p45
tp46
Rp47
aa(lp48
g26
ag10
(g14
S'\x00\x00\x00\x00\x00\x00\x00\x00'
p49
tp50
Rp51
aa(lp52
g31
ag10
(g14
S'p({\xf0\x93\x10\xdc?'
p53
tp54
Rp55
aatp56
Rp57
aa(lp58
S'mode_l'
p59
ag0
((lp60
(lp61
g9
ag10
(g14
S'\xa2\xbfT\x16\xb8\xbe\xcc?'
p62
tp63
Rp64
aa(lp65
g21
ag10
(g14
S'iLcs\x98\xad\xc0?'
p66
tp67
Rp68
aa(lp69
g26
ag10
(g14
S'\xbc\x15\xef\r\xcaF\xd2?'
p70
tp71
Rp72
aa(lp73
g31
ag10
(g14
S'>\xe44\xad\r\x03\xd7?'
p74
tp75
Rp76
aatp77
Rp78
aa(lp79
S'move_n'
p80
ag0
((lp81
(lp82
g9
ag10
(g14
S'=gTG\xd2\x17\xd6?'
p83
tp84
Rp85
aa(lp86
g21
ag10
(g14
S'J\xacQ\xd4\x01\xd3\xb1?'
p87
tp88
Rp89
aa(lp90
g26
ag10
(g14
S'J\xacQ\xd4\x01\xd3\xb1?'
p91
tp92
Rp93
aa(lp94
g31
ag10
(g14
S'OaAgV\x7f\xe0?'
p95
tp96
Rp97
aatp98
Rp99
aatp100
Rp101
aa(lp102
S'x'
p103
ag0
((lp104
(lp105
g6
ag0
((lp106
(lp107
g9
ag10
(g14
S'\xd6\xb3Aij\xc9\xc8?'
p108
tp109
Rp110
aa(lp111
g21
ag10
(g14
S'\xd7\xbcG0Dt\xc6?'
p112
tp113
Rp114
aa(lp115
g26
ag10
(g14
S'\x16\xed\x1dc\x04\xac\xe2?'
p116
tp117
Rp118
aa(lp119
g31
ag10
(g14
S'\xf8k\xfbg\xffH\xa8?'
p120
tp121
Rp122
aatp123
Rp124
aa(lp125
g38
ag0
((lp126
(lp127
g9
ag10
(g14
S'\x05q\xe1\x14\x03B\xb8?'
p128
tp129
Rp130
aa(lp131
g21
ag10
(g14
S'\x05q\xe1\x14\x03B\xb8?'
p132
tp133
Rp134
aa(lp135
g26
ag10
(g14
S'\x81#A\xe6\x0e\x18\xda?'
p136
tp137
Rp138
aa(lp139
g31
ag10
(g14
S'\xfc#N\x8f\xef\xc6\xd9?'
p140
tp141
Rp142
aatp143
Rp144
aa(lp145
g59
ag0
((lp146
(lp147
g9
ag10
(g14
S'>\x8co\x12\xd6T\xd0?'
p148
tp149
Rp150
aa(lp151
g21
ag10
(g14
S'\xc2\x07\x0em7\x06\xcf?'
p152
tp153
Rp154
aa(lp155
g26
ag10
(g14
S'\xc2\x07\x0em7\x06\xcf?'
p156
tp157
Rp158
aa(lp159
g31
ag10
(g14
S'\xffk\x82\x80\xf2\xa4\xd0?'
p160
tp161
Rp162
aatp163
Rp164
aa(lp165
g80
ag0
((lp166
(lp167
g9
ag10
(g14
S'\xb4WIZlL\xd0?'
p168
tp169
Rp170
aa(lp171
g21
ag10
(g14
S'\xca\xc57\xa6\xcaM\xce?'
p172
tp173
Rp174
aa(lp175
g26
ag10
(g14
S'\xce\x11,;\xe5>\xcf?'
p176
tp177
Rp178
aa(lp179
g31
ag10
(g14
S'\x80\xbc\x04\xb5;\xed\xd0?'
p180
tp181
Rp182
aatp183
Rp184
aatp185
Rp186
aa(lp187
S't'
p188
ag0
((lp189
(lp190
g6
ag0
((lp191
(lp192
g9
ag10
(g14
S'D\xeb\xd0\x06\xa2\xbb\xd8?'
p193
tp194
Rp195
aa(lp196
g21
ag10
(g14
S'\x00\x00\x00\x00\x00\x00\x00\x00'
p197
tp198
Rp199
aa(lp200
g26
ag10
(g14
S'^\x8a\x97\xfc.\xa2\xe3?'
p201
tp202
Rp203
aa(lp204
g31
ag10
(g14
S'\x00\x00\x00\x00\x00\x00\x00\x00'
p205
tp206
Rp207
aatp208
Rp209
aa(lp210
g38
ag0
((lp211
(lp212
g9
ag10
(g14
S'?ifM\x95\x00\xd3?'
p213
tp214
Rp215
aa(lp216
g21
ag10
(g14
S'\xa2\xec\xa2\x8c\xe1\xb0\xc9?'
p217
tp218
Rp219
aa(lp220
g26
ag10
(g14
S'\xa2\xec\xa2\x8c\xe1\xb0\xc9?'
p221
tp222
Rp223
aa(lp224
g31
ag10
(g14
S' \xaa\xf6%\x89N\xd3?'
p225
tp226
Rp227
aatp228
Rp229
aa(lp230
g59
ag0
((lp231
(lp232
g9
ag10
(g14
S'!3u\x119G\xd1?'
p233
tp234
Rp235
aa(lp236
g21
ag10
(g14
S'\xf6]!Yi\xb1\xd6?'
p237
tp238
Rp239
aa(lp240
g26
ag10
(g14
S'1\x1eo<$c\xc9?'
p241
tp242
Rp243
aa(lp244
g31
ag10
(g14
S'\xa2\xbfc\xee\x96\xab\xc6?'
p245
tp246
Rp247
aatp248
Rp249
aa(lp250
g80
ag0
((lp251
(lp252
g9
ag10
(g14
S'\x92 \xb4\xc4\xc9\xff\xd2?'
p253
tp254
Rp255
aa(lp256
g21
ag10
(g14
S'\xfd\xf3\xddKM\xd9\xb2?'
p257
tp258
Rp259
aa(lp260
g26
ag10
(g14
S'\x9a\xd2)\xaf9\xa7\xbf?'
p261
tp262
Rp263
aa(lp264
g31
ag10
(g14
S'\xe4\xf6D>\n0\xe0?'
p265
tp266
Rp267
aatp268
Rp269
aatp270
Rp271
aatp272
Rp273
.