ccollections
OrderedDict
p0
((lp1
(lp2
S'env_params'
p3
ag0
((lp4
(lp5
S'robot_position'
p6
a(F15.0
F10.0
tp7
aa(lp8
S'robot_orientation'
p9
aF0.0
aa(lp10
S'action'
p11
aS'LEFT'
p12
aa(lp13
S'is_mode_switch'
p14
aI00
aa(lp15
S'start_direction'
p16
acutils
StartDirection
p17
(I0
tp18
Rp19
aa(lp20
S'mode_config'
p21
aNaa(lp22
S'goal_position'
p23
a(lp24
F7.5
aF10.0
aaa(lp25
S'allowed_mode_index'
p26
aS'x'
p27
aa(lp28
S'is_rotation'
p29
aI00
aa(lp30
S'goal_orientation'
p31
aF0.0
aatp32
Rp33
aatp34
Rp35
.