ccollections
OrderedDict
p0
((lp1
(lp2
S'env_params'
p3
ag0
((lp4
(lp5
S'robot_position'
p6
a(F15.0
F10.0
tp7
aa(lp8
S'robot_orientation'
p9
aF0.0
aa(lp10
S'is_mode_switch'
p11
aI00
aa(lp12
S'start_direction'
p13
acutils
StartDirection
p14
(I0
tp15
Rp16
aa(lp17
S'mode_config'
p18
aNaa(lp19
S'goal_position'
p20
a(lp21
F22.5
aF10.0
aaa(lp22
S'is_rotation'
p23
aI00
aa(lp24
S'allowed_mode_index'
p25
aS'x'
p26
aa(lp27
S'goal_orientation'
p28
aF0.0
aatp29
Rp30
aatp31
Rp32
.