ccollections
OrderedDict
p0
((lp1
(lp2
S'env_params'
p3
ag0
((lp4
(lp5
S'robot_position'
p6
a(F15.0
F10.0
tp7
aa(lp8
S'robot_orientation'
p9
aF0.0
aa(lp10
S'action'
p11
aS'tx'
p12
aa(lp13
S'is_mode_switch'
p14
aI01
aa(lp15
S'start_direction'
p16
acutils
StartDirection
p17
(I0
tp18
Rp19
aa(lp20
S'mode_config'
p21
ag0
((lp22
(lp23
S'start_mode'
p24
aS't'
p25
aa(lp26
S'target_mode'
p27
aS'x'
p28
aatp29
Rp30
aa(lp31
S'goal_position'
p32
a(lp33
F15.0
aF10.0
aaa(lp34
S'allowed_mode_index'
p35
ag25
aa(lp36
S'is_rotation'
p37
aI00
aa(lp38
S'goal_orientation'
p39
aF0.0
aatp40
Rp41
aatp42
Rp43
.