ccollections
OrderedDict
p0
((lp1
(lp2
S'env_params'
p3
ag0
((lp4
(lp5
S'robot_position'
p6
a(F15.0
F10.0
tp7
aa(lp8
S'robot_orientation'
p9
aF0.0
aa(lp10
S'start_direction'
p11
acutils
StartDirection
p12
(I1
tp13
Rp14
aa(lp15
S'is_mode_switch'
p16
aI00
aa(lp17
S'mode_config'
p18
aNaa(lp19
S'is_rotation'
p20
aI01
aa(lp21
S'allowed_mode_index'
p22
aS't'
p23
aa(lp24
S'goal_orientation'
p25
aF-1.5707963267948966
aatp26
Rp27
aatp28
Rp29
.