ccollections
OrderedDict
p0
((lp1
(lp2
S'env_params'
p3
ag0
((lp4
(lp5
S'robot_position'
p6
a(F15.0
F10.0
tp7
aa(lp8
S'robot_orientation'
p9
aF0.0
aa(lp10
S'is_mode_switch'
p11
aI01
aa(lp12
S'start_direction'
p13
acutils
StartDirection
p14
(I0
tp15
Rp16
aa(lp17
S'mode_config'
p18
ag0
((lp19
(lp20
S'start_mode'
p21
aS'x'
p22
aa(lp23
S'target_mode'
p24
aS'y'
p25
aatp26
Rp27
aa(lp28
S'is_rotation'
p29
aI00
aa(lp30
S'allowed_mode_index'
p31
ag22
aa(lp32
S'goal_orientation'
p33
aF0.0
aatp34
Rp35
aatp36
Rp37
.