ccollections
OrderedDict
p0
((lp1
(lp2
S'env_params'
p3
ag0
((lp4
(lp5
S'robot_position'
p6
a(F15.0
F10.0
tp7
aa(lp8
S'robot_orientation'
p9
aF0.0
aa(lp10
S'is_mode_switch'
p11
aI01
aa(lp12
S'start_direction'
p13
aNaa(lp14
S'mode_config'
p15
ag0
((lp16
(lp17
S'start_mode'
p18
aS'x'
p19
aa(lp20
S'target_mode'
p21
aS't'
p22
aatp23
Rp24
aatp25
Rp26
aatp27
Rp28
.