ccollections
OrderedDict
p0
((lp1
(lp2
S'env_params'
p3
ag0
((lp4
(lp5
S'r_to_g_relative_orientation'
p6
accorrective_mode_switch_utils
RGOrient
p7
(I3
tp8
Rp9
aa(lp10
S'num_turns'
p11
aI3
aa(lp12
S'start_direction'
p13
accorrective_mode_switch_utils
StartDirection
p14
(I0
tp15
Rp16
aa(lp17
S'assistance_type'
p18
aI2
aa(lp19
S'robot_position'
p20
a(lp21
F7.5
aF15.0
aaa(lp22
S'robot_orientation'
p23
aF0.0
aa(lp24
S'goal_position'
p25
a(lp26
F22.5
aF5.0
aaa(lp27
S'goal_orientation'
p28
aF1.5707963267948966
aa(lp29
S'start_mode'
p30
aS'y'
p31
aa(lp32
S'location_of_turn'
p33
aI1
aatp34
Rp35
aatp36
Rp37
.